target datalayout = "e-m:e-p270:32:32-p271:32:32-p272:64:64-i64:64-i128:128-f80:128-n8:16:32:64-S128"
target triple = "x86_64-pc-linux-gnu"

%struct.llama_data_write = type { ptr }
%struct.llama_data_write_buffer = type { %struct.llama_data_write, ptr, i64, i64 }

@_ZTISt9exception = external constant ptr
@.str.32 = private unnamed_addr constant [28 x i8] c"%s: error saving state: %s\0A\00", align 1
@__func__.llama_state_get_data = private unnamed_addr constant [21 x i8] c"llama_state_get_data\00", align 1
@_ZTV16llama_data_write = linkonce_odr unnamed_addr constant { [7 x ptr] } { [7 x ptr] [ptr null, ptr @_ZTI16llama_data_write, ptr @__cxa_pure_virtual, ptr @__cxa_pure_virtual, ptr @__cxa_pure_virtual, ptr @_ZN16llama_data_writeD2Ev, ptr @_ZN16llama_data_writeD0Ev] }, comdat, align 8

; Function Attrs: inlinehint mustprogress nounwind uwtable
define linkonce_odr void @_ZN16llama_data_writeC2Ev(ptr noundef nonnull align 8 dereferenceable(8) %0) unnamed_addr #7 comdat align 2 {
  %2 = alloca ptr, align 8
  store ptr %0, ptr %2, align 8, !tbaa !393
  %3 = load ptr, ptr %2, align 8
  store ptr getelementptr inbounds inrange(-16, 40) ({ [7 x ptr] }, ptr @_ZTV16llama_data_write, i32 0, i32 0, i32 2), ptr %3, align 8, !tbaa !375
  ret void
}

; Function Attrs: mustprogress nounwind uwtable
define linkonce_odr void @_ZN16llama_data_writeD2Ev(ptr noundef nonnull align 8 dereferenceable(8) %0) unnamed_addr #0 comdat align 2 {
  %2 = alloca ptr, align 8
  store ptr %0, ptr %2, align 8, !tbaa !393
  ret void
}

; Function Attrs: mustprogress nounwind uwtable
define linkonce_odr void @_ZN23llama_data_write_bufferC2EPhm(ptr noundef nonnull align 8 dereferenceable(32) %0, ptr noundef %1, i64 noundef %2) unnamed_addr #0 comdat align 2 {
  %4 = alloca ptr, align 8
  %5 = alloca ptr, align 8
  %6 = alloca i64, align 8
  store ptr %0, ptr %4, align 8, !tbaa !386
  store ptr %1, ptr %5, align 8, !tbaa !385
  store i64 %2, ptr %6, align 8, !tbaa !124
  %7 = load ptr, ptr %4, align 8
  call void @_ZN16llama_data_writeC2Ev(ptr noundef nonnull align 8 dereferenceable(8) %7) #19
  store ptr getelementptr inbounds inrange(-16, 40) ({ [7 x ptr] }, ptr @_ZTV23llama_data_write_buffer, i32 0, i32 0, i32 2), ptr %7, align 8, !tbaa !375
  %8 = getelementptr inbounds nuw %struct.llama_data_write_buffer, ptr %7, i32 0, i32 1
  %9 = load ptr, ptr %5, align 8, !tbaa !385
  store ptr %9, ptr %8, align 8, !tbaa !388
  %10 = getelementptr inbounds nuw %struct.llama_data_write_buffer, ptr %7, i32 0, i32 2
  %11 = load i64, ptr %6, align 8, !tbaa !124
  store i64 %11, ptr %10, align 8, !tbaa !391
  %12 = getelementptr inbounds nuw %struct.llama_data_write_buffer, ptr %7, i32 0, i32 3
  store i64 0, ptr %12, align 8, !tbaa !392
  ret void
}

; Function Attrs: mustprogress uwtable
define i64 @llama_state_get_data(ptr noundef %0, ptr noundef %1, i64 noundef %2) #2 personality ptr @__gxx_personality_v0 {
  %4 = alloca i64, align 8
  %5 = alloca ptr, align 8
  %6 = alloca ptr, align 8
  %7 = alloca i64, align 8
  %8 = alloca %struct.llama_data_write_buffer, align 8
  %9 = alloca ptr, align 8
  %10 = alloca i32, align 4
  %11 = alloca i32, align 4
  %12 = alloca ptr, align 8
  store ptr %0, ptr %5, align 8, !tbaa !3
  store ptr %1, ptr %6, align 8, !tbaa !385
  store i64 %2, ptr %7, align 8, !tbaa !124
  call void @llvm.lifetime.start.p0(i64 32, ptr %8) #19
  %13 = load ptr, ptr %6, align 8, !tbaa !385
  %14 = load i64, ptr %7, align 8, !tbaa !124
  call void @_ZN23llama_data_write_bufferC2EPhm(ptr noundef nonnull align 8 dereferenceable(32) %8, ptr noundef %13, i64 noundef %14)
  %15 = load ptr, ptr %5, align 8, !tbaa !3
  %16 = invoke noundef i64 @_ZL29llama_state_get_data_internalP13llama_contextR16llama_data_write(ptr noundef %15, ptr noundef nonnull align 8 dereferenceable(8) %8)
          to label %17 unwind label %18

17:                                               ; preds = %3
  store i64 %16, ptr %4, align 8
  store i32 1, ptr %11, align 4
  br label %47

18:                                               ; preds = %3
  %19 = landingpad { ptr, i32 }
          cleanup
          catch ptr @_ZTISt9exception
  %20 = extractvalue { ptr, i32 } %19, 0
  store ptr %20, ptr %9, align 8
  %21 = extractvalue { ptr, i32 } %19, 1
  store i32 %21, ptr %10, align 4
  br label %22

22:                                               ; preds = %18
  %23 = load i32, ptr %10, align 4
  %24 = call i32 @llvm.eh.typeid.for.p0(ptr @_ZTISt9exception) #19
  %25 = icmp eq i32 %23, %24
  br i1 %25, label %26, label %49

26:                                               ; preds = %22
  call void @llvm.lifetime.start.p0(i64 8, ptr %12) #19
  %27 = load ptr, ptr %9, align 8
  %28 = call ptr @__cxa_begin_catch(ptr %27) #19
  store ptr %28, ptr %12, align 8
  %29 = load ptr, ptr %12, align 8, !tbaa !373
  %30 = load ptr, ptr %29, align 8, !tbaa !375
  %31 = getelementptr inbounds ptr, ptr %30, i64 2
  %32 = load ptr, ptr %31, align 8
  %33 = call noundef ptr %32(ptr noundef nonnull align 8 dereferenceable(8) %29) #19
  invoke void (i32, ptr, ...) @_Z18llama_log_internal14ggml_log_levelPKcz(i32 noundef 4, ptr noundef @.str.32, ptr noundef @__func__.llama_state_get_data, ptr noundef %33)
          to label %34 unwind label %35

34:                                               ; preds = %26
  store i64 0, ptr %4, align 8
  store i32 1, ptr %11, align 4
  invoke void @__cxa_end_catch()
          to label %39 unwind label %40

35:                                               ; preds = %26
  %36 = landingpad { ptr, i32 }
          cleanup
  %37 = extractvalue { ptr, i32 } %36, 0
  store ptr %37, ptr %9, align 8
  %38 = extractvalue { ptr, i32 } %36, 1
  store i32 %38, ptr %10, align 4
  invoke void @__cxa_end_catch()
          to label %44 unwind label %55

39:                                               ; preds = %34
  call void @llvm.lifetime.end.p0(i64 8, ptr %12) #19
  br label %47

40:                                               ; preds = %34
  %41 = landingpad { ptr, i32 }
          cleanup
  %42 = extractvalue { ptr, i32 } %41, 0
  store ptr %42, ptr %9, align 8
  %43 = extractvalue { ptr, i32 } %41, 1
  store i32 %43, ptr %10, align 4
  br label %45

44:                                               ; preds = %35
  br label %45

45:                                               ; preds = %44, %40
  call void @llvm.lifetime.end.p0(i64 8, ptr %12) #19
  br label %49

46:                                               ; No predecessors!
  unreachable

47:                                               ; preds = %39, %17
  call void @_ZN16llama_data_writeD2Ev(ptr noundef nonnull align 8 dereferenceable(32) %8) #19
  call void @llvm.lifetime.end.p0(i64 32, ptr %8) #19
  %48 = load i64, ptr %4, align 8
  ret i64 %48

49:                                               ; preds = %45, %22
  call void @_ZN16llama_data_writeD2Ev(ptr noundef nonnull align 8 dereferenceable(32) %8) #19
  call void @llvm.lifetime.end.p0(i64 32, ptr %8) #19
  br label %50

50:                                               ; preds = %49
  %51 = load ptr, ptr %9, align 8
  %52 = load i32, ptr %10, align 4
  %53 = insertvalue { ptr, i32 } poison, ptr %51, 0
  %54 = insertvalue { ptr, i32 } %53, i32 %52, 1
  resume { ptr, i32 } %54

55:                                               ; preds = %35
  %56 = landingpad { ptr, i32 }
          catch ptr null
  %57 = extractvalue { ptr, i32 } %56, 0
  call void @__clang_call_terminate(ptr %57) #21
  unreachable
}