; Function Attrs: mustprogress uwtable
define noundef i64 @llama_state_get_data(ptr noundef %0, ptr noundef %1, i64 noundef %2) local_unnamed_addr #2 personality ptr @__gxx_personality_v0 {
  %4 = alloca %struct.llama_data_write_buffer, align 8
  call void @llvm.lifetime.start.p0(i64 32, ptr nonnull %4) #29
  store ptr getelementptr inbounds nuw inrange(-16, 40) (i8, ptr @_ZTV23llama_data_write_buffer, i64 16), ptr %4, align 8, !tbaa !336
  %5 = getelementptr inbounds nuw i8, ptr %4, i64 8
  store ptr %1, ptr %5, align 8, !tbaa !342
  %6 = getelementptr inbounds nuw i8, ptr %4, i64 16
  store i64 %2, ptr %6, align 8, !tbaa !344
  %7 = getelementptr inbounds nuw i8, ptr %4, i64 24
  store i64 0, ptr %7, align 8, !tbaa !345
  %8 = invoke fastcc noundef i64 @_ZL29llama_state_get_data_internalP13llama_contextR16llama_data_write(ptr noundef %0, ptr noundef nonnull align 8 dereferenceable(8) %4)
          to label %24 unwind label %9

9:                                                ; preds = %3
  %10 = landingpad { ptr, i32 }
          cleanup
          catch ptr @_ZTISt9exception
  %11 = extractvalue { ptr, i32 } %10, 1
  %12 = call i32 @llvm.eh.typeid.for.p0(ptr nonnull @_ZTISt9exception) #29
  %13 = icmp eq i32 %11, %12
  br i1 %13, label %14, label %25

14:                                               ; preds = %9
  %15 = extractvalue { ptr, i32 } %10, 0
  %16 = call ptr @__cxa_begin_catch(ptr %15) #29
  %17 = load ptr, ptr %16, align 8, !tbaa !336
  %18 = getelementptr inbounds nuw i8, ptr %17, i64 16
  %19 = load ptr, ptr %18, align 8
  %20 = call noundef ptr %19(ptr noundef nonnull align 8 dereferenceable(8) %16) #29
  invoke void (i32, ptr, ...) @_Z18llama_log_internal14ggml_log_levelPKcz(i32 noundef 4, ptr noundef nonnull @.str.32, ptr noundef nonnull @__func__.llama_state_get_data, ptr noundef %20)
          to label %21 unwind label %22

21:                                               ; preds = %14
  call void @__cxa_end_catch()
  br label %24

22:                                               ; preds = %14
  %23 = landingpad { ptr, i32 }
          cleanup
  invoke void @__cxa_end_catch()
          to label %25 unwind label %26

24:                                               ; preds = %21, %3
  %.0 = phi i64 [ %8, %3 ], [ 0, %21 ]
  call void @llvm.lifetime.end.p0(i64 32, ptr nonnull %4) #29
  ret i64 %.0

25:                                               ; preds = %22, %9
  %.merged = phi { ptr, i32 } [ %10, %9 ], [ %23, %22 ]
  call void @llvm.lifetime.end.p0(i64 32, ptr nonnull %4) #29
  resume { ptr, i32 } %.merged

26:                                               ; preds = %22
  %27 = landingpad { ptr, i32 }
          catch ptr null
  %28 = extractvalue { ptr, i32 } %27, 0
  call void @__clang_call_terminate(ptr %28) #30
  unreachable
}